Archive member included to satisfy reference by file (symbol)

/usr/lib/gcc/arm-none-eabi/7.1.0/../../../../arm-none-eabi/lib/armv7-m/libg_nano.a(lib_a-atoi.o)
                              src/main.o (atoi)
/usr/lib/gcc/arm-none-eabi/7.1.0/../../../../arm-none-eabi/lib/armv7-m/libg_nano.a(lib_a-bzero.o)
                              src/pid.o (bzero)
/usr/lib/gcc/arm-none-eabi/7.1.0/../../../../arm-none-eabi/lib/armv7-m/libg_nano.a(lib_a-errno.o)
                              system/newlib/_sbrk.o (__errno)
/usr/lib/gcc/arm-none-eabi/7.1.0/../../../../arm-none-eabi/lib/armv7-m/libg_nano.a(lib_a-impure.o)
                              /usr/lib/gcc/arm-none-eabi/7.1.0/../../../../arm-none-eabi/lib/armv7-m/libg_nano.a(lib_a-errno.o) (_impure_ptr)
/usr/lib/gcc/arm-none-eabi/7.1.0/../../../../arm-none-eabi/lib/armv7-m/libg_nano.a(lib_a-memcpy-stub.o)
                              src/eeprom.o (memcpy)
/usr/lib/gcc/arm-none-eabi/7.1.0/../../../../arm-none-eabi/lib/armv7-m/libg_nano.a(lib_a-snprintf.o)
                              src/eeprom.o (snprintf)
/usr/lib/gcc/arm-none-eabi/7.1.0/../../../../arm-none-eabi/lib/armv7-m/libg_nano.a(lib_a-sprintf.o)
                              src/main.o (sprintf)
/usr/lib/gcc/arm-none-eabi/7.1.0/../../../../arm-none-eabi/lib/armv7-m/libg_nano.a(lib_a-strtol.o)
                              /usr/lib/gcc/arm-none-eabi/7.1.0/../../../../arm-none-eabi/lib/armv7-m/libg_nano.a(lib_a-atoi.o) (_strtol_r)
/usr/lib/gcc/arm-none-eabi/7.1.0/../../../../arm-none-eabi/lib/armv7-m/libg_nano.a(lib_a-locale.o)
                              /usr/lib/gcc/arm-none-eabi/7.1.0/../../../../arm-none-eabi/lib/armv7-m/libg_nano.a(lib_a-strtol.o) (__locale_ctype_ptr_l)
/usr/lib/gcc/arm-none-eabi/7.1.0/../../../../arm-none-eabi/lib/armv7-m/libg_nano.a(lib_a-mbtowc_r.o)
                              /usr/lib/gcc/arm-none-eabi/7.1.0/../../../../arm-none-eabi/lib/armv7-m/libg_nano.a(lib_a-locale.o) (__ascii_mbtowc)
/usr/lib/gcc/arm-none-eabi/7.1.0/../../../../arm-none-eabi/lib/armv7-m/libg_nano.a(lib_a-nano-svfprintf.o)
                              /usr/lib/gcc/arm-none-eabi/7.1.0/../../../../arm-none-eabi/lib/armv7-m/libg_nano.a(lib_a-snprintf.o) (_svfprintf_r)
/usr/lib/gcc/arm-none-eabi/7.1.0/../../../../arm-none-eabi/lib/armv7-m/libg_nano.a(lib_a-nano-vfprintf_i.o)
                              /usr/lib/gcc/arm-none-eabi/7.1.0/../../../../arm-none-eabi/lib/armv7-m/libg_nano.a(lib_a-nano-svfprintf.o) (_printf_i)
/usr/lib/gcc/arm-none-eabi/7.1.0/../../../../arm-none-eabi/lib/armv7-m/libg_nano.a(lib_a-strcmp.o)
                              /usr/lib/gcc/arm-none-eabi/7.1.0/../../../../arm-none-eabi/lib/armv7-m/libg_nano.a(lib_a-locale.o) (strcmp)
/usr/lib/gcc/arm-none-eabi/7.1.0/../../../../arm-none-eabi/lib/armv7-m/libg_nano.a(lib_a-wctomb_r.o)
                              /usr/lib/gcc/arm-none-eabi/7.1.0/../../../../arm-none-eabi/lib/armv7-m/libg_nano.a(lib_a-locale.o) (__ascii_wctomb)
/usr/lib/gcc/arm-none-eabi/7.1.0/../../../../arm-none-eabi/lib/armv7-m/libg_nano.a(lib_a-ctype_.o)
                              /usr/lib/gcc/arm-none-eabi/7.1.0/../../../../arm-none-eabi/lib/armv7-m/libg_nano.a(lib_a-locale.o) (_ctype_)
/usr/lib/gcc/arm-none-eabi/7.1.0/../../../../arm-none-eabi/lib/armv7-m/libg_nano.a(lib_a-memchr-stub.o)
                              /usr/lib/gcc/arm-none-eabi/7.1.0/../../../../arm-none-eabi/lib/armv7-m/libg_nano.a(lib_a-nano-svfprintf.o) (memchr)
/usr/lib/gcc/arm-none-eabi/7.1.0/../../../../arm-none-eabi/lib/armv7-m/libg_nano.a(lib_a-memmove.o)
                              /usr/lib/gcc/arm-none-eabi/7.1.0/../../../../arm-none-eabi/lib/armv7-m/libg_nano.a(lib_a-nano-svfprintf.o) (memmove)
/usr/lib/gcc/arm-none-eabi/7.1.0/../../../../arm-none-eabi/lib/armv7-m/libg_nano.a(lib_a-nano-freer.o)
                              /usr/lib/gcc/arm-none-eabi/7.1.0/../../../../arm-none-eabi/lib/armv7-m/libg_nano.a(lib_a-nano-svfprintf.o) (_free_r)
/usr/lib/gcc/arm-none-eabi/7.1.0/../../../../arm-none-eabi/lib/armv7-m/libg_nano.a(lib_a-nano-mallocr.o)
                              /usr/lib/gcc/arm-none-eabi/7.1.0/../../../../arm-none-eabi/lib/armv7-m/libg_nano.a(lib_a-nano-svfprintf.o) (_malloc_r)
/usr/lib/gcc/arm-none-eabi/7.1.0/../../../../arm-none-eabi/lib/armv7-m/libg_nano.a(lib_a-nano-reallocr.o)
                              /usr/lib/gcc/arm-none-eabi/7.1.0/../../../../arm-none-eabi/lib/armv7-m/libg_nano.a(lib_a-nano-svfprintf.o) (_realloc_r)
/usr/lib/gcc/arm-none-eabi/7.1.0/../../../../arm-none-eabi/lib/armv7-m/libg_nano.a(lib_a-sbrkr.o)
                              /usr/lib/gcc/arm-none-eabi/7.1.0/../../../../arm-none-eabi/lib/armv7-m/libg_nano.a(lib_a-nano-mallocr.o) (_sbrk_r)
/usr/lib/gcc/arm-none-eabi/7.1.0/../../../../arm-none-eabi/lib/armv7-m/libg_nano.a(lib_a-mlock.o)
                              /usr/lib/gcc/arm-none-eabi/7.1.0/../../../../arm-none-eabi/lib/armv7-m/libg_nano.a(lib_a-nano-freer.o) (__malloc_lock)
/usr/lib/gcc/arm-none-eabi/7.1.0/../../../../arm-none-eabi/lib/armv7-m/libg_nano.a(lib_a-nano-msizer.o)
                              /usr/lib/gcc/arm-none-eabi/7.1.0/../../../../arm-none-eabi/lib/armv7-m/libg_nano.a(lib_a-nano-reallocr.o) (_malloc_usable_size_r)

Allocating common symbols
Common symbol       size              file

errno               0x4               system/newlib/_syscalls.o

Discarded input sections

 .text          0x0000000000000000        0x0 system/F10X_MD/exception_handlers.o
 .data          0x0000000000000000        0x0 system/F10X_MD/exception_handlers.o
 .bss           0x0000000000000000        0x0 system/F10X_MD/exception_handlers.o
 .text          0x0000000000000000        0x0 system/F10X_MD/system.o
 .data          0x0000000000000000        0x0 system/F10X_MD/system.o
 .bss           0x0000000000000000        0x0 system/F10X_MD/system.o
 .text          0x0000000000000000        0x0 system/F10X_MD/vectors.o
 .data          0x0000000000000000        0x0 system/F10X_MD/vectors.o
 .bss           0x0000000000000000        0x0 system/F10X_MD/vectors.o
 .text          0x0000000000000000        0x0 system/newlib/_exit.o
 .data          0x0000000000000000        0x0 system/newlib/_exit.o
 .bss           0x0000000000000000        0x0 system/newlib/_exit.o
 .text.abort    0x0000000000000000        0xc system/newlib/_exit.o
 .text          0x0000000000000000        0x0 system/newlib/_initialize_hardware.o
 .data          0x0000000000000000        0x0 system/newlib/_initialize_hardware.o
 .bss           0x0000000000000000        0x0 system/newlib/_initialize_hardware.o
 .text          0x0000000000000000        0x0 system/newlib/_reset_hardware.o
 .data          0x0000000000000000        0x0 system/newlib/_reset_hardware.o
 .bss           0x0000000000000000        0x0 system/newlib/_reset_hardware.o
 .text          0x0000000000000000        0x0 system/newlib/_sbrk.o
 .data          0x0000000000000000        0x0 system/newlib/_sbrk.o
 .bss           0x0000000000000000        0x0 system/newlib/_sbrk.o
 .text          0x0000000000000000        0x0 system/newlib/_startup.o
 .data          0x0000000000000000        0x0 system/newlib/_startup.o
 .bss           0x0000000000000000        0x0 system/newlib/_startup.o
 .text.__initialize_data
                0x0000000000000000       0x20 system/newlib/_startup.o
 .text.__initialize_bss
                0x0000000000000000       0x10 system/newlib/_startup.o
 .text          0x0000000000000000        0x0 system/newlib/_syscalls.o
 .data          0x0000000000000000        0x0 system/newlib/_syscalls.o
 .bss           0x0000000000000000        0x0 system/newlib/_syscalls.o
 .text.raise    0x0000000000000000       0x10 system/newlib/_syscalls.o
 .text.kill     0x0000000000000000       0x10 system/newlib/_syscalls.o
 .text._chown   0x0000000000000000       0x10 system/newlib/_syscalls.o
 .text._close   0x0000000000000000       0x10 system/newlib/_syscalls.o
 .text._execve  0x0000000000000000       0x10 system/newlib/_syscalls.o
 .text._fork    0x0000000000000000       0x10 system/newlib/_syscalls.o
 .text._fstat   0x0000000000000000       0x10 system/newlib/_syscalls.o
 .text._getpid  0x0000000000000000       0x10 system/newlib/_syscalls.o
 .text._gettimeofday
                0x0000000000000000       0x10 system/newlib/_syscalls.o
 .text._isatty  0x0000000000000000       0x10 system/newlib/_syscalls.o
 .text._kill    0x0000000000000000       0x10 system/newlib/_syscalls.o
 .text._link    0x0000000000000000       0x10 system/newlib/_syscalls.o
 .text._lseek   0x0000000000000000       0x10 system/newlib/_syscalls.o
 .text._open    0x0000000000000000       0x10 system/newlib/_syscalls.o
 .text._read    0x0000000000000000       0x10 system/newlib/_syscalls.o
 .text._readlink
                0x0000000000000000       0x10 system/newlib/_syscalls.o
 .text._stat    0x0000000000000000       0x10 system/newlib/_syscalls.o
 .text._symlink
                0x0000000000000000       0x10 system/newlib/_syscalls.o
 .text._times   0x0000000000000000       0x10 system/newlib/_syscalls.o
 .text._unlink  0x0000000000000000       0x10 system/newlib/_syscalls.o
 .text._wait    0x0000000000000000       0x10 system/newlib/_syscalls.o
 .text._write   0x0000000000000000       0x10 system/newlib/_syscalls.o
 .bss.__env     0x0000000000000000        0x4 system/newlib/_syscalls.o
 .data.environ  0x0000000000000000        0x4 system/newlib/_syscalls.o
 .text          0x0000000000000000        0x0 src/main.o
 .data          0x0000000000000000        0x0 src/main.o
 .bss           0x0000000000000000        0x0 src/main.o
 .text.check_uart_cmd
                0x0000000000000000       0x3c src/main.o
 .text          0x0000000000000000        0x0 src/uart.o
 .data          0x0000000000000000        0x0 src/uart.o
 .bss           0x0000000000000000        0x0 src/uart.o
 .text.uart_write
                0x0000000000000000       0x38 src/uart.o
 .text          0x0000000000000000        0x0 src/eeprom.o
 .data          0x0000000000000000        0x0 src/eeprom.o
 .bss           0x0000000000000000        0x0 src/eeprom.o
 .text          0x0000000000000000        0x0 src/peripheral.o
 .data          0x0000000000000000        0x0 src/peripheral.o
 .bss           0x0000000000000000        0x0 src/peripheral.o
 .text          0x0000000000000000        0x0 src/pid.o
 .data          0x0000000000000000        0x0 src/pid.o
 .bss           0x0000000000000000        0x0 src/pid.o
 .text.pid_set_PWM
                0x0000000000000000       0x18 src/pid.o
 .text          0x0000000000000000        0x0 /usr/lib/gcc/arm-none-eabi/7.1.0/../../../../arm-none-eabi/lib/armv7-m/libg_nano.a(lib_a-atoi.o)
 .data          0x0000000000000000        0x0 /usr/lib/gcc/arm-none-eabi/7.1.0/../../../../arm-none-eabi/lib/armv7-m/libg_nano.a(lib_a-atoi.o)
 .bss           0x0000000000000000        0x0 /usr/lib/gcc/arm-none-eabi/7.1.0/../../../../arm-none-eabi/lib/armv7-m/libg_nano.a(lib_a-atoi.o)
 .text._atoi_r  0x0000000000000000        0x8 /usr/lib/gcc/arm-none-eabi/7.1.0/../../../../arm-none-eabi/lib/armv7-m/libg_nano.a(lib_a-atoi.o)
 .text          0x0000000000000000        0x0 /usr/lib/gcc/arm-none-eabi/7.1.0/../../../../arm-none-eabi/lib/armv7-m/libg_nano.a(lib_a-bzero.o)
 .data          0x0000000000000000        0x0 /usr/lib/gcc/arm-none-eabi/7.1.0/../../../../arm-none-eabi/lib/armv7-m/libg_nano.a(lib_a-bzero.o)
 .bss           0x0000000000000000        0x0 /usr/lib/gcc/arm-none-eabi/7.1.0/../../../../arm-none-eabi/lib/armv7-m/libg_nano.a(lib_a-bzero.o)
 .text          0x0000000000000000        0x0 /usr/lib/gcc/arm-none-eabi/7.1.0/../../../../arm-none-eabi/lib/armv7-m/libg_nano.a(lib_a-errno.o)
 .data          0x0000000000000000        0x0 /usr/lib/gcc/arm-none-eabi/7.1.0/../../../../arm-none-eabi/lib/armv7-m/libg_nano.a(lib_a-errno.o)
 .bss           0x0000000000000000        0x0 /usr/lib/gcc/arm-none-eabi/7.1.0/../../../../arm-none-eabi/lib/armv7-m/libg_nano.a(lib_a-errno.o)
 .text          0x0000000000000000        0x0 /usr/lib/gcc/arm-none-eabi/7.1.0/../../../../arm-none-eabi/lib/armv7-m/libg_nano.a(lib_a-impure.o)
 .data          0x0000000000000000        0x0 /usr/lib/gcc/arm-none-eabi/7.1.0/../../../../arm-none-eabi/lib/armv7-m/libg_nano.a(lib_a-impure.o)
 .bss           0x0000000000000000        0x0 /usr/lib/gcc/arm-none-eabi/7.1.0/../../../../arm-none-eabi/lib/armv7-m/libg_nano.a(lib_a-impure.o)
 .rodata._global_impure_ptr
                0x0000000000000000        0x4 /usr/lib/gcc/arm-none-eabi/7.1.0/../../../../arm-none-eabi/lib/armv7-m/libg_nano.a(lib_a-impure.o)
 .text          0x0000000000000000        0x0 /usr/lib/gcc/arm-none-eabi/7.1.0/../../../../arm-none-eabi/lib/armv7-m/libg_nano.a(lib_a-memcpy-stub.o)
 .data          0x0000000000000000        0x0 /usr/lib/gcc/arm-none-eabi/7.1.0/../../../../arm-none-eabi/lib/armv7-m/libg_nano.a(lib_a-memcpy-stub.o)
 .bss           0x0000000000000000        0x0 /usr/lib/gcc/arm-none-eabi/7.1.0/../../../../arm-none-eabi/lib/armv7-m/libg_nano.a(lib_a-memcpy-stub.o)
 .text          0x0000000000000000        0x0 /usr/lib/gcc/arm-none-eabi/7.1.0/../../../../arm-none-eabi/lib/armv7-m/libg_nano.a(lib_a-snprintf.o)
 .data          0x0000000000000000        0x0 /usr/lib/gcc/arm-none-eabi/7.1.0/../../../../arm-none-eabi/lib/armv7-m/libg_nano.a(lib_a-snprintf.o)
 .bss           0x0000000000000000        0x0 /usr/lib/gcc/arm-none-eabi/7.1.0/../../../../arm-none-eabi/lib/armv7-m/libg_nano.a(lib_a-snprintf.o)
 .text._snprintf_r
                0x0000000000000000       0x5e /usr/lib/gcc/arm-none-eabi/7.1.0/../../../../arm-none-eabi/lib/armv7-m/libg_nano.a(lib_a-snprintf.o)
 .text          0x0000000000000000        0x0 /usr/lib/gcc/arm-none-eabi/7.1.0/../../../../arm-none-eabi/lib/armv7-m/libg_nano.a(lib_a-sprintf.o)
 .data          0x0000000000000000        0x0 /usr/lib/gcc/arm-none-eabi/7.1.0/../../../../arm-none-eabi/lib/armv7-m/libg_nano.a(lib_a-sprintf.o)
 .bss           0x0000000000000000        0x0 /usr/lib/gcc/arm-none-eabi/7.1.0/../../../../arm-none-eabi/lib/armv7-m/libg_nano.a(lib_a-sprintf.o)
 .text._sprintf_r
                0x0000000000000000       0x40 /usr/lib/gcc/arm-none-eabi/7.1.0/../../../../arm-none-eabi/lib/armv7-m/libg_nano.a(lib_a-sprintf.o)
 .text          0x0000000000000000        0x0 /usr/lib/gcc/arm-none-eabi/7.1.0/../../../../arm-none-eabi/lib/armv7-m/libg_nano.a(lib_a-strtol.o)
 .data          0x0000000000000000        0x0 /usr/lib/gcc/arm-none-eabi/7.1.0/../../../../arm-none-eabi/lib/armv7-m/libg_nano.a(lib_a-strtol.o)
 .bss           0x0000000000000000        0x0 /usr/lib/gcc/arm-none-eabi/7.1.0/../../../../arm-none-eabi/lib/armv7-m/libg_nano.a(lib_a-strtol.o)
 .text._strtol_r
                0x0000000000000000       0x24 /usr/lib/gcc/arm-none-eabi/7.1.0/../../../../arm-none-eabi/lib/armv7-m/libg_nano.a(lib_a-strtol.o)
 .text.strtol_l
                0x0000000000000000       0x1c /usr/lib/gcc/arm-none-eabi/7.1.0/../../../../arm-none-eabi/lib/armv7-m/libg_nano.a(lib_a-strtol.o)
 .text          0x0000000000000000        0x0 /usr/lib/gcc/arm-none-eabi/7.1.0/../../../../arm-none-eabi/lib/armv7-m/libg_nano.a(lib_a-locale.o)
 .data          0x0000000000000000        0x0 /usr/lib/gcc/arm-none-eabi/7.1.0/../../../../arm-none-eabi/lib/armv7-m/libg_nano.a(lib_a-locale.o)
 .bss           0x0000000000000000        0x0 /usr/lib/gcc/arm-none-eabi/7.1.0/../../../../arm-none-eabi/lib/armv7-m/libg_nano.a(lib_a-locale.o)
 .text._setlocale_r
                0x0000000000000000       0x38 /usr/lib/gcc/arm-none-eabi/7.1.0/../../../../arm-none-eabi/lib/armv7-m/libg_nano.a(lib_a-locale.o)
 .text.__locale_mb_cur_max
                0x0000000000000000       0x1c /usr/lib/gcc/arm-none-eabi/7.1.0/../../../../arm-none-eabi/lib/armv7-m/libg_nano.a(lib_a-locale.o)
 .text.__locale_ctype_ptr
                0x0000000000000000       0x1c /usr/lib/gcc/arm-none-eabi/7.1.0/../../../../arm-none-eabi/lib/armv7-m/libg_nano.a(lib_a-locale.o)
 .text.setlocale
                0x0000000000000000       0x10 /usr/lib/gcc/arm-none-eabi/7.1.0/../../../../arm-none-eabi/lib/armv7-m/libg_nano.a(lib_a-locale.o)
 .bss._PathLocale
                0x0000000000000000        0x4 /usr/lib/gcc/arm-none-eabi/7.1.0/../../../../arm-none-eabi/lib/armv7-m/libg_nano.a(lib_a-locale.o)
 .text          0x0000000000000000        0x0 /usr/lib/gcc/arm-none-eabi/7.1.0/../../../../arm-none-eabi/lib/armv7-m/libg_nano.a(lib_a-mbtowc_r.o)
 .data          0x0000000000000000        0x0 /usr/lib/gcc/arm-none-eabi/7.1.0/../../../../arm-none-eabi/lib/armv7-m/libg_nano.a(lib_a-mbtowc_r.o)
 .bss           0x0000000000000000        0x0 /usr/lib/gcc/arm-none-eabi/7.1.0/../../../../arm-none-eabi/lib/armv7-m/libg_nano.a(lib_a-mbtowc_r.o)
 .text._mbtowc_r
                0x0000000000000000       0x24 /usr/lib/gcc/arm-none-eabi/7.1.0/../../../../arm-none-eabi/lib/armv7-m/libg_nano.a(lib_a-mbtowc_r.o)
 .text          0x0000000000000000        0x0 /usr/lib/gcc/arm-none-eabi/7.1.0/../../../../arm-none-eabi/lib/armv7-m/libg_nano.a(lib_a-nano-svfprintf.o)
 .data          0x0000000000000000        0x0 /usr/lib/gcc/arm-none-eabi/7.1.0/../../../../arm-none-eabi/lib/armv7-m/libg_nano.a(lib_a-nano-svfprintf.o)
 .bss           0x0000000000000000        0x0 /usr/lib/gcc/arm-none-eabi/7.1.0/../../../../arm-none-eabi/lib/armv7-m/libg_nano.a(lib_a-nano-svfprintf.o)
 .text.__ssprint_r
                0x0000000000000000       0xf4 /usr/lib/gcc/arm-none-eabi/7.1.0/../../../../arm-none-eabi/lib/armv7-m/libg_nano.a(lib_a-nano-svfprintf.o)
 .text          0x0000000000000000        0x0 /usr/lib/gcc/arm-none-eabi/7.1.0/../../../../arm-none-eabi/lib/armv7-m/libg_nano.a(lib_a-nano-vfprintf_i.o)
 .data          0x0000000000000000        0x0 /usr/lib/gcc/arm-none-eabi/7.1.0/../../../../arm-none-eabi/lib/armv7-m/libg_nano.a(lib_a-nano-vfprintf_i.o)
 .bss           0x0000000000000000        0x0 /usr/lib/gcc/arm-none-eabi/7.1.0/../../../../arm-none-eabi/lib/armv7-m/libg_nano.a(lib_a-nano-vfprintf_i.o)
 .text          0x0000000000000000       0x14 /usr/lib/gcc/arm-none-eabi/7.1.0/../../../../arm-none-eabi/lib/armv7-m/libg_nano.a(lib_a-strcmp.o)
 .data          0x0000000000000000        0x0 /usr/lib/gcc/arm-none-eabi/7.1.0/../../../../arm-none-eabi/lib/armv7-m/libg_nano.a(lib_a-strcmp.o)
 .bss           0x0000000000000000        0x0 /usr/lib/gcc/arm-none-eabi/7.1.0/../../../../arm-none-eabi/lib/armv7-m/libg_nano.a(lib_a-strcmp.o)
 .debug_frame   0x0000000000000000       0x20 /usr/lib/gcc/arm-none-eabi/7.1.0/../../../../arm-none-eabi/lib/armv7-m/libg_nano.a(lib_a-strcmp.o)
 .ARM.attributes
                0x0000000000000000       0x1b /usr/lib/gcc/arm-none-eabi/7.1.0/../../../../arm-none-eabi/lib/armv7-m/libg_nano.a(lib_a-strcmp.o)
 .text          0x0000000000000000        0x0 /usr/lib/gcc/arm-none-eabi/7.1.0/../../../../arm-none-eabi/lib/armv7-m/libg_nano.a(lib_a-wctomb_r.o)
 .data          0x0000000000000000        0x0 /usr/lib/gcc/arm-none-eabi/7.1.0/../../../../arm-none-eabi/lib/armv7-m/libg_nano.a(lib_a-wctomb_r.o)
 .bss           0x0000000000000000        0x0 /usr/lib/gcc/arm-none-eabi/7.1.0/../../../../arm-none-eabi/lib/armv7-m/libg_nano.a(lib_a-wctomb_r.o)
 .text._wctomb_r
                0x0000000000000000       0x24 /usr/lib/gcc/arm-none-eabi/7.1.0/../../../../arm-none-eabi/lib/armv7-m/libg_nano.a(lib_a-wctomb_r.o)
 .text          0x0000000000000000        0x0 /usr/lib/gcc/arm-none-eabi/7.1.0/../../../../arm-none-eabi/lib/armv7-m/libg_nano.a(lib_a-ctype_.o)
 .data          0x0000000000000000        0x0 /usr/lib/gcc/arm-none-eabi/7.1.0/../../../../arm-none-eabi/lib/armv7-m/libg_nano.a(lib_a-ctype_.o)
 .bss           0x0000000000000000        0x0 /usr/lib/gcc/arm-none-eabi/7.1.0/../../../../arm-none-eabi/lib/armv7-m/libg_nano.a(lib_a-ctype_.o)
 .text          0x0000000000000000        0x0 /usr/lib/gcc/arm-none-eabi/7.1.0/../../../../arm-none-eabi/lib/armv7-m/libg_nano.a(lib_a-memchr-stub.o)
 .data          0x0000000000000000        0x0 /usr/lib/gcc/arm-none-eabi/7.1.0/../../../../arm-none-eabi/lib/armv7-m/libg_nano.a(lib_a-memchr-stub.o)
 .bss           0x0000000000000000        0x0 /usr/lib/gcc/arm-none-eabi/7.1.0/../../../../arm-none-eabi/lib/armv7-m/libg_nano.a(lib_a-memchr-stub.o)
 .text          0x0000000000000000        0x0 /usr/lib/gcc/arm-none-eabi/7.1.0/../../../../arm-none-eabi/lib/armv7-m/libg_nano.a(lib_a-memmove.o)
 .data          0x0000000000000000        0x0 /usr/lib/gcc/arm-none-eabi/7.1.0/../../../../arm-none-eabi/lib/armv7-m/libg_nano.a(lib_a-memmove.o)
 .bss           0x0000000000000000        0x0 /usr/lib/gcc/arm-none-eabi/7.1.0/../../../../arm-none-eabi/lib/armv7-m/libg_nano.a(lib_a-memmove.o)
 .text          0x0000000000000000        0x0 /usr/lib/gcc/arm-none-eabi/7.1.0/../../../../arm-none-eabi/lib/armv7-m/libg_nano.a(lib_a-nano-freer.o)
 .data          0x0000000000000000        0x0 /usr/lib/gcc/arm-none-eabi/7.1.0/../../../../arm-none-eabi/lib/armv7-m/libg_nano.a(lib_a-nano-freer.o)
 .bss           0x0000000000000000        0x0 /usr/lib/gcc/arm-none-eabi/7.1.0/../../../../arm-none-eabi/lib/armv7-m/libg_nano.a(lib_a-nano-freer.o)
 .text          0x0000000000000000        0x0 /usr/lib/gcc/arm-none-eabi/7.1.0/../../../../arm-none-eabi/lib/armv7-m/libg_nano.a(lib_a-nano-mallocr.o)
 .data          0x0000000000000000        0x0 /usr/lib/gcc/arm-none-eabi/7.1.0/../../../../arm-none-eabi/lib/armv7-m/libg_nano.a(lib_a-nano-mallocr.o)
 .bss           0x0000000000000000        0x0 /usr/lib/gcc/arm-none-eabi/7.1.0/../../../../arm-none-eabi/lib/armv7-m/libg_nano.a(lib_a-nano-mallocr.o)
 .text          0x0000000000000000        0x0 /usr/lib/gcc/arm-none-eabi/7.1.0/../../../../arm-none-eabi/lib/armv7-m/libg_nano.a(lib_a-nano-reallocr.o)
 .data          0x0000000000000000        0x0 /usr/lib/gcc/arm-none-eabi/7.1.0/../../../../arm-none-eabi/lib/armv7-m/libg_nano.a(lib_a-nano-reallocr.o)
 .bss           0x0000000000000000        0x0 /usr/lib/gcc/arm-none-eabi/7.1.0/../../../../arm-none-eabi/lib/armv7-m/libg_nano.a(lib_a-nano-reallocr.o)
 .text          0x0000000000000000        0x0 /usr/lib/gcc/arm-none-eabi/7.1.0/../../../../arm-none-eabi/lib/armv7-m/libg_nano.a(lib_a-sbrkr.o)
 .data          0x0000000000000000        0x0 /usr/lib/gcc/arm-none-eabi/7.1.0/../../../../arm-none-eabi/lib/armv7-m/libg_nano.a(lib_a-sbrkr.o)
 .bss           0x0000000000000000        0x0 /usr/lib/gcc/arm-none-eabi/7.1.0/../../../../arm-none-eabi/lib/armv7-m/libg_nano.a(lib_a-sbrkr.o)
 .text          0x0000000000000000        0x0 /usr/lib/gcc/arm-none-eabi/7.1.0/../../../../arm-none-eabi/lib/armv7-m/libg_nano.a(lib_a-mlock.o)
 .data          0x0000000000000000        0x0 /usr/lib/gcc/arm-none-eabi/7.1.0/../../../../arm-none-eabi/lib/armv7-m/libg_nano.a(lib_a-mlock.o)
 .bss           0x0000000000000000        0x0 /usr/lib/gcc/arm-none-eabi/7.1.0/../../../../arm-none-eabi/lib/armv7-m/libg_nano.a(lib_a-mlock.o)
 .text          0x0000000000000000        0x0 /usr/lib/gcc/arm-none-eabi/7.1.0/../../../../arm-none-eabi/lib/armv7-m/libg_nano.a(lib_a-nano-msizer.o)
 .data          0x0000000000000000        0x0 /usr/lib/gcc/arm-none-eabi/7.1.0/../../../../arm-none-eabi/lib/armv7-m/libg_nano.a(lib_a-nano-msizer.o)
 .bss           0x0000000000000000        0x0 /usr/lib/gcc/arm-none-eabi/7.1.0/../../../../arm-none-eabi/lib/armv7-m/libg_nano.a(lib_a-nano-msizer.o)

Memory Configuration

Name             Origin             Length             Attributes
RAM              0x0000000020000000 0x0000000000005000 xrw
CCMRAM           0x0000000000000000 0x0000000000000000 xrw
FLASH            0x0000000008000000 0x0000000000010000 xr
FLASHB1          0x0000000000000000 0x0000000000000000 xr
EXTMEMB0         0x0000000000000000 0x0000000000000000 xr
EXTMEMB1         0x0000000000000000 0x0000000000000000 xr
EXTMEMB2         0x0000000000000000 0x0000000000000000 xr
EXTMEMB3         0x0000000000000000 0x0000000000000000 xr
MEMORY_ARRAY     0x0000000000000000 0x0000000000000000 xrw
*default*        0x0000000000000000 0xffffffffffffffff

Linker script and memory map

LOAD system/F10X_MD/exception_handlers.o
LOAD system/F10X_MD/system.o
LOAD system/F10X_MD/vectors.o
LOAD system/newlib/_exit.o
LOAD system/newlib/_initialize_hardware.o
LOAD system/newlib/_reset_hardware.o
LOAD system/newlib/_sbrk.o
LOAD system/newlib/_startup.o
LOAD system/newlib/_syscalls.o
LOAD src/main.o
LOAD src/uart.o
LOAD src/eeprom.o
LOAD src/peripheral.o
LOAD src/pid.o
START GROUP
LOAD /usr/lib/gcc/arm-none-eabi/7.1.0/armv7-m/libgcc.a
LOAD /usr/lib/gcc/arm-none-eabi/7.1.0/../../../../arm-none-eabi/lib/armv7-m/libg_nano.a
LOAD /usr/lib/gcc/arm-none-eabi/7.1.0/../../../../arm-none-eabi/lib/armv7-m/libc_nano.a
END GROUP
START GROUP
LOAD /usr/lib/gcc/arm-none-eabi/7.1.0/armv7-m/libgcc.a
LOAD /usr/lib/gcc/arm-none-eabi/7.1.0/../../../../arm-none-eabi/lib/armv7-m/libc_nano.a
END GROUP
                0x0000000020005000                __stack = (ORIGIN (RAM) + LENGTH (RAM))
                0x0000000020005000                _estack = __stack
                0x0000000000000400                __Main_Stack_Size = 0x400
                [!provide]                        PROVIDE (_Main_Stack_Size, __Main_Stack_Size)
                0x0000000020004c00                __Main_Stack_Limit = (__stack - __Main_Stack_Size)
                [!provide]                        PROVIDE (_Main_Stack_Limit, __Main_Stack_Limit)
                0x0000000000000100                _Minimum_Stack_Size = 0x100
                0x00000000200014c0                PROVIDE (_Heap_Begin, _end_noinit)
                0x0000000020004c00                PROVIDE (_Heap_Limit, (__stack - __Main_Stack_Size))

.isr_vector     0x0000000008000000      0x1f8
 FILL mask 0xff
                0x0000000008000000                __vectors_start = ABSOLUTE (.)
                0x0000000008000000                __vectors_start__ = ABSOLUTE (.)
 *(.isr_vector)
 .isr_vector    0x0000000008000000      0x10c system/F10X_MD/vectors.o
                0x0000000008000000                __isr_vectors
 *(.cfmconfig)
 *(.after_vectors .after_vectors.*)
 .after_vectors
                0x000000000800010c       0x74 system/F10X_MD/exception_handlers.o
                0x000000000800010c                Reset_Handler
                0x0000000008000110                NMI_Handler
                0x0000000008000114                HardFault_Handler
                0x0000000008000128                HardFault_Handler_C
                0x000000000800012c                MemManage_Handler
                0x0000000008000130                BusFault_Handler
                0x0000000008000144                BusFault_Handler_C
                0x0000000008000148                UsageFault_Handler
                0x000000000800015c                UsageFault_Handler_C
                0x0000000008000160                SVC_Handler
                0x0000000008000164                DebugMon_Handler
                0x0000000008000168                PendSV_Handler
 .after_vectors
                0x0000000008000180        0x4 system/F10X_MD/vectors.o
                0x0000000008000180                EXTI2_IRQHandler
                0x0000000008000180                TIM8_TRG_COM_IRQHandler
                0x0000000008000180                TIM8_CC_IRQHandler
                0x0000000008000180                TIM1_CC_IRQHandler
                0x0000000008000180                TIM6_IRQHandler
                0x0000000008000180                PVD_IRQHandler
                0x0000000008000180                SDIO_IRQHandler
                0x0000000008000180                CAN2_RX1_IRQHandler
                0x0000000008000180                EXTI3_IRQHandler
                0x0000000008000180                TIM8_TRG_COM_TIM14_IRQHandler
                0x0000000008000180                TIM1_UP_TIM10_IRQHandler
                0x0000000008000180                TIM8_UP_TIM13_IRQHandler
                0x0000000008000180                EXTI0_IRQHandler
                0x0000000008000180                I2C2_EV_IRQHandler
                0x0000000008000180                CAN1_RX0_IRQHandler
                0x0000000008000180                TIM1_UP_TIM16_IRQHandler
                0x0000000008000180                CAN2_SCE_IRQHandler
                0x0000000008000180                ADC1_2_IRQHandler
                0x0000000008000180                SPI1_IRQHandler
                0x0000000008000180                TAMPER_IRQHandler
                0x0000000008000180                TIM6_DAC_IRQHandler
                0x0000000008000180                TIM1_BRK_TIM9_IRQHandler
                0x0000000008000180                CAN2_RX0_IRQHandler
                0x0000000008000180                TIM8_UP_IRQHandler
                0x0000000008000180                DMA2_Channel2_IRQHandler
                0x0000000008000180                DMA1_Channel4_IRQHandler
                0x0000000008000180                USART3_IRQHandler
                0x0000000008000180                RTC_IRQHandler
                0x0000000008000180                DMA1_Channel7_IRQHandler
                0x0000000008000180                CAN1_RX1_IRQHandler
                0x0000000008000180                UART5_IRQHandler
                0x0000000008000180                ADC3_IRQHandler
                0x0000000008000180                TIM4_IRQHandler
                0x0000000008000180                DMA2_Channel1_IRQHandler
                0x0000000008000180                I2C1_EV_IRQHandler
                0x0000000008000180                DMA1_Channel6_IRQHandler
                0x0000000008000180                UART4_IRQHandler
                0x0000000008000180                DMA2_Channel4_IRQHandler
                0x0000000008000180                TIM3_IRQHandler
                0x0000000008000180                RCC_IRQHandler
                0x0000000008000180                TIM8_BRK_TIM12_IRQHandler
                0x0000000008000180                TIM1_TRG_COM_IRQHandler
                0x0000000008000180                DMA1_Channel1_IRQHandler
                0x0000000008000180                Default_Handler
                0x0000000008000180                CEC_IRQHandler
                0x0000000008000180                TIM14_IRQHandler
                0x0000000008000180                TIM13_IRQHandler
                0x0000000008000180                TIM12_IRQHandler
                0x0000000008000180                TIM7_IRQHandler
                0x0000000008000180                CAN2_TX_IRQHandler
                0x0000000008000180                TIM5_IRQHandler
                0x0000000008000180                EXTI9_5_IRQHandler
                0x0000000008000180                ETH_WKUP_IRQHandler
                0x0000000008000180                SPI2_IRQHandler
                0x0000000008000180                CAN1_TX_IRQHandler
                0x0000000008000180                DMA2_Channel5_IRQHandler
                0x0000000008000180                DMA1_Channel5_IRQHandler
                0x0000000008000180                EXTI4_IRQHandler
                0x0000000008000180                USB_LP_CAN1_RX0_IRQHandler
                0x0000000008000180                TIM1_TRG_COM_TIM17_IRQHandler
                0x0000000008000180                USB_HP_CAN1_TX_IRQHandler
                0x0000000008000180                DMA1_Channel3_IRQHandler
                0x0000000008000180                FSMC_IRQHandler
                0x0000000008000180                ETH_IRQHandler
                0x0000000008000180                TIM1_UP_IRQHandler
                0x0000000008000180                WWDG_IRQHandler
                0x0000000008000180                TIM2_IRQHandler
                0x0000000008000180                OTG_FS_WKUP_IRQHandler
                0x0000000008000180                TIM1_TRG_COM_TIM11_IRQHandler
                0x0000000008000180                TIM1_BRK_IRQHandler
                0x0000000008000180                EXTI1_IRQHandler
                0x0000000008000180                RTCAlarm_IRQHandler
                0x0000000008000180                DMA2_Channel4_5_IRQHandler
                0x0000000008000180                I2C2_ER_IRQHandler
                0x0000000008000180                DMA1_Channel2_IRQHandler
                0x0000000008000180                TIM8_BRK_IRQHandler
                0x0000000008000180                CAN1_SCE_IRQHandler
                0x0000000008000180                FLASH_IRQHandler
                0x0000000008000180                USART1_IRQHandler
                0x0000000008000180                OTG_FS_IRQHandler
                0x0000000008000180                SPI3_IRQHandler
                0x0000000008000180                I2C1_ER_IRQHandler
                0x0000000008000180                USBWakeUp_IRQHandler
                0x0000000008000180                DMA2_Channel3_IRQHandler
                0x0000000008000180                TIM1_BRK_TIM15_IRQHandler
 .after_vectors
                0x0000000008000184       0x74 system/newlib/_startup.o
                0x0000000008000184                _start

.eeprom         0x0000000008000400      0x400
 *(.eeprom)
 .eeprom        0x0000000008000400      0x400 src/eeprom.o
                0x0000000008000400                pid_eeprom

.inits          0x0000000008000800       0x28
                0x0000000008000800                __data_regions_array_start = .
                0x0000000008000800        0x4 LONG 0x8001e8c LOADADDR (.data)
                0x0000000008000804        0x4 LONG 0x20000000 ADDR (.data)
                0x0000000008000808        0x4 LONG 0x200001f0 (ADDR (.data) + SIZEOF (.data))
                0x000000000800080c        0x4 LONG 0x8001e8c LOADADDR (.data_CCMRAM)
                0x0000000008000810        0x4 LONG 0x0 ADDR (.data_CCMRAM)
                0x0000000008000814        0x4 LONG 0x0 (ADDR (.data_CCMRAM) + SIZEOF (.data_CCMRAM))
                0x0000000008000818                __data_regions_array_end = .
                0x0000000008000818                __bss_regions_array_start = .
                0x0000000008000818        0x4 LONG 0x200001f0 ADDR (.bss)
                0x000000000800081c        0x4 LONG 0x200014c0 (ADDR (.bss) + SIZEOF (.bss))
                0x0000000008000820        0x4 LONG 0x0 ADDR (.bss_CCMRAM)
                0x0000000008000824        0x4 LONG 0x0 (ADDR (.bss_CCMRAM) + SIZEOF (.bss_CCMRAM))
                0x0000000008000828                __bss_regions_array_end = .
 *(.init)
 *(.fini)
                0x0000000008000828                . = ALIGN (0x4)
                [!provide]                        PROVIDE (__preinit_array_start, .)
 *(.preinit_array_sysinit .preinit_array_sysinit.*)
 *(.preinit_array_platform .preinit_array_platform.*)
 *(.preinit_array .preinit_array.*)
                [!provide]                        PROVIDE (__preinit_array_end, .)
                0x0000000008000828                . = ALIGN (0x4)
                [!provide]                        PROVIDE (__init_array_start, .)
 *(SORT(.init_array.*))
 *(.init_array)
                [!provide]                        PROVIDE (__init_array_end, .)
                0x0000000008000828                . = ALIGN (0x4)
                [!provide]                        PROVIDE (__fini_array_start, .)
 *(SORT(.fini_array.*))
 *(.fini_array)
                [!provide]                        PROVIDE (__fini_array_end, .)

.flashtext
 *(.flashtext .flashtext.*)

.text           0x0000000008000828     0x1662
 *(.text .text.*)
 .text.SystemInit
                0x0000000008000828      0x104 system/F10X_MD/system.o
                0x0000000008000828                SystemInit
 .text.SystemCoreClockUpdate
                0x000000000800092c       0x5c system/F10X_MD/system.o
                0x000000000800092c                SystemCoreClockUpdate
 .text._exit    0x0000000008000988        0x8 system/newlib/_exit.o
                0x0000000008000988                _exit
 .text.__initialize_hardware_early
                0x0000000008000990       0x18 system/newlib/_initialize_hardware.o
                0x0000000008000990                __initialize_hardware_early
 .text.__initialize_hardware
                0x00000000080009a8        0x4 system/newlib/_initialize_hardware.o
                0x00000000080009a8                __initialize_hardware
 .text.__reset_hardware
                0x00000000080009ac       0x20 system/newlib/_reset_hardware.o
                0x00000000080009ac                __reset_hardware
 .text._sbrk    0x00000000080009cc       0x40 system/newlib/_sbrk.o
                0x00000000080009cc                _sbrk
 .text.__initialize_args
                0x0000000008000a0c       0x10 system/newlib/_syscalls.o
                0x0000000008000a0c                __initialize_args
 .text.check_uart_cmd.part.0
                0x0000000008000a1c      0x1c4 src/main.o
 .text.EXTI15_10_IRQHandler
                0x0000000008000be0       0x88 src/main.o
                0x0000000008000be0                EXTI15_10_IRQHandler
 .text.SysTick_Handler
                0x0000000008000c68       0x68 src/main.o
                0x0000000008000c68                SysTick_Handler
 .text.startup.main
                0x0000000008000cd0       0xa4 src/main.o
                0x0000000008000cd0                main
 .text.USART2_IRQHandler
                0x0000000008000d74       0x7c src/uart.o
                0x0000000008000d74                USART2_IRQHandler
 .text.uart_read
                0x0000000008000df0       0x28 src/uart.o
                0x0000000008000df0                uart_read
 .text.uart_read_nonblock
                0x0000000008000e18       0x18 src/uart.o
                0x0000000008000e18                uart_read_nonblock
 .text.uart_print
                0x0000000008000e30       0x50 src/uart.o
                0x0000000008000e30                uart_print
 .text.uart_init
                0x0000000008000e80       0x54 src/uart.o
                0x0000000008000e80                uart_init
 .text.flash_load_to_host
                0x0000000008000ed4       0x40 src/eeprom.o
                0x0000000008000ed4                flash_load_to_host
 .text.flash_store_from_host
                0x0000000008000f14       0xb8 src/eeprom.o
                0x0000000008000f14                flash_store_from_host
 .text.periph_init
                0x0000000008000fcc      0x12c src/peripheral.o
                0x0000000008000fcc                periph_init
 .text.pid_reset
                0x00000000080010f8       0x2c src/pid.o
                0x00000000080010f8                pid_reset
 .text.pid_set_point
                0x0000000008001124        0x4 src/pid.o
                0x0000000008001124                pid_set_point
 .text.pid_set_parameters
                0x0000000008001128       0x30 src/pid.o
                0x0000000008001128                pid_set_parameters
 .text.pid_set_mode
                0x0000000008001158        0x4 src/pid.o
                0x0000000008001158                pid_set_mode
 .text.pid_set_sub_cmd
                0x000000000800115c        0x4 src/pid.o
                0x000000000800115c                pid_set_sub_cmd
 .text.pid_update
                0x0000000008001160      0x12c src/pid.o
                0x0000000008001160                pid_update
 .text.pid_init
                0x000000000800128c       0x40 src/pid.o
                0x000000000800128c                pid_init
 .text.atoi     0x00000000080012cc        0x8 /usr/lib/gcc/arm-none-eabi/7.1.0/../../../../arm-none-eabi/lib/armv7-m/libg_nano.a(lib_a-atoi.o)
                0x00000000080012cc                atoi
 .text.bzero    0x00000000080012d4       0x10 /usr/lib/gcc/arm-none-eabi/7.1.0/../../../../arm-none-eabi/lib/armv7-m/libg_nano.a(lib_a-bzero.o)
                0x00000000080012d4                bzero
 .text.__errno  0x00000000080012e4        0xc /usr/lib/gcc/arm-none-eabi/7.1.0/../../../../arm-none-eabi/lib/armv7-m/libg_nano.a(lib_a-errno.o)
                0x00000000080012e4                __errno
 .text.memcpy   0x00000000080012f0       0x16 /usr/lib/gcc/arm-none-eabi/7.1.0/../../../../arm-none-eabi/lib/armv7-m/libg_nano.a(lib_a-memcpy-stub.o)
                0x00000000080012f0                memcpy
 *fill*         0x0000000008001306        0x2 
 .text.snprintf
                0x0000000008001308       0x68 /usr/lib/gcc/arm-none-eabi/7.1.0/../../../../arm-none-eabi/lib/armv7-m/libg_nano.a(lib_a-snprintf.o)
                0x0000000008001308                snprintf
                0x0000000008001308                sniprintf
 .text.sprintf  0x0000000008001370       0x48 /usr/lib/gcc/arm-none-eabi/7.1.0/../../../../arm-none-eabi/lib/armv7-m/libg_nano.a(lib_a-sprintf.o)
                0x0000000008001370                sprintf
                0x0000000008001370                siprintf
 .text._strtol_l.isra.0
                0x00000000080013b8      0x100 /usr/lib/gcc/arm-none-eabi/7.1.0/../../../../arm-none-eabi/lib/armv7-m/libg_nano.a(lib_a-strtol.o)
 .text.strtol   0x00000000080014b8       0x2c /usr/lib/gcc/arm-none-eabi/7.1.0/../../../../arm-none-eabi/lib/armv7-m/libg_nano.a(lib_a-strtol.o)
                0x00000000080014b8                strtol
 .text.__locale_ctype_ptr_l
                0x00000000080014e4        0x6 /usr/lib/gcc/arm-none-eabi/7.1.0/../../../../arm-none-eabi/lib/armv7-m/libg_nano.a(lib_a-locale.o)
                0x00000000080014e4                __locale_ctype_ptr_l
 .text.__ascii_mbtowc
                0x00000000080014ea       0x24 /usr/lib/gcc/arm-none-eabi/7.1.0/../../../../arm-none-eabi/lib/armv7-m/libg_nano.a(lib_a-mbtowc_r.o)
                0x00000000080014ea                __ascii_mbtowc
 .text.__ssputs_r
                0x000000000800150e       0xb6 /usr/lib/gcc/arm-none-eabi/7.1.0/../../../../arm-none-eabi/lib/armv7-m/libg_nano.a(lib_a-nano-svfprintf.o)
                0x000000000800150e                __ssputs_r
 .text._svfprintf_r
                0x00000000080015c4      0x1e8 /usr/lib/gcc/arm-none-eabi/7.1.0/../../../../arm-none-eabi/lib/armv7-m/libg_nano.a(lib_a-nano-svfprintf.o)
                0x00000000080015c4                _svfprintf_r
                0x00000000080015c4                _svfiprintf_r
 .text._printf_common
                0x00000000080017ac       0xee /usr/lib/gcc/arm-none-eabi/7.1.0/../../../../arm-none-eabi/lib/armv7-m/libg_nano.a(lib_a-nano-vfprintf_i.o)
                0x00000000080017ac                _printf_common
 *fill*         0x000000000800189a        0x2 
 .text._printf_i
                0x000000000800189c      0x240 /usr/lib/gcc/arm-none-eabi/7.1.0/../../../../arm-none-eabi/lib/armv7-m/libg_nano.a(lib_a-nano-vfprintf_i.o)
                0x000000000800189c                _printf_i
 .text.__ascii_wctomb
                0x0000000008001adc       0x1a /usr/lib/gcc/arm-none-eabi/7.1.0/../../../../arm-none-eabi/lib/armv7-m/libg_nano.a(lib_a-wctomb_r.o)
                0x0000000008001adc                __ascii_wctomb
 .text.memchr   0x0000000008001af6       0x1c /usr/lib/gcc/arm-none-eabi/7.1.0/../../../../arm-none-eabi/lib/armv7-m/libg_nano.a(lib_a-memchr-stub.o)
                0x0000000008001af6                memchr
 .text.memmove  0x0000000008001b12       0x34 /usr/lib/gcc/arm-none-eabi/7.1.0/../../../../arm-none-eabi/lib/armv7-m/libg_nano.a(lib_a-memmove.o)
                0x0000000008001b12                memmove
 *fill*         0x0000000008001b46        0x2 
 .text._free_r  0x0000000008001b48       0x98 /usr/lib/gcc/arm-none-eabi/7.1.0/../../../../arm-none-eabi/lib/armv7-m/libg_nano.a(lib_a-nano-freer.o)
                0x0000000008001b48                _free_r
 .text._malloc_r
                0x0000000008001be0       0xbc /usr/lib/gcc/arm-none-eabi/7.1.0/../../../../arm-none-eabi/lib/armv7-m/libg_nano.a(lib_a-nano-mallocr.o)
                0x0000000008001be0                _malloc_r
 .text._realloc_r
                0x0000000008001c9c       0x4c /usr/lib/gcc/arm-none-eabi/7.1.0/../../../../arm-none-eabi/lib/armv7-m/libg_nano.a(lib_a-nano-reallocr.o)
                0x0000000008001c9c                _realloc_r
 .text._sbrk_r  0x0000000008001ce8       0x20 /usr/lib/gcc/arm-none-eabi/7.1.0/../../../../arm-none-eabi/lib/armv7-m/libg_nano.a(lib_a-sbrkr.o)
                0x0000000008001ce8                _sbrk_r
 .text.__malloc_lock
                0x0000000008001d08        0x2 /usr/lib/gcc/arm-none-eabi/7.1.0/../../../../arm-none-eabi/lib/armv7-m/libg_nano.a(lib_a-mlock.o)
                0x0000000008001d08                __malloc_lock
 .text.__malloc_unlock
                0x0000000008001d0a        0x2 /usr/lib/gcc/arm-none-eabi/7.1.0/../../../../arm-none-eabi/lib/armv7-m/libg_nano.a(lib_a-mlock.o)
                0x0000000008001d0a                __malloc_unlock
 .text._malloc_usable_size_r
                0x0000000008001d0c       0x12 /usr/lib/gcc/arm-none-eabi/7.1.0/../../../../arm-none-eabi/lib/armv7-m/libg_nano.a(lib_a-nano-msizer.o)
                0x0000000008001d0c                _malloc_usable_size_r
 *(.rodata .rodata.* .constdata .constdata.*)
 *fill*         0x0000000008001d1e        0x2 
 .rodata.check_uart_cmd.part.0.str1.4
                0x0000000008001d20        0xc src/main.o
 .rodata.flash_load_to_host.str1.4
                0x0000000008001d2c       0x20 src/eeprom.o
                                         0x1e (size before relaxing)
 .rodata._setlocale_r.str1.1
                0x0000000008001d4c        0x8 /usr/lib/gcc/arm-none-eabi/7.1.0/../../../../arm-none-eabi/lib/armv7-m/libg_nano.a(lib_a-locale.o)
                                          0x9 (size before relaxing)
 .rodata.str1.1
                0x0000000008001d54        0x2 /usr/lib/gcc/arm-none-eabi/7.1.0/../../../../arm-none-eabi/lib/armv7-m/libg_nano.a(lib_a-locale.o)
 .rodata._svfprintf_r.str1.1
                0x0000000008001d56       0x11 /usr/lib/gcc/arm-none-eabi/7.1.0/../../../../arm-none-eabi/lib/armv7-m/libg_nano.a(lib_a-nano-svfprintf.o)
 .rodata._printf_i.str1.1
                0x0000000008001d67       0x22 /usr/lib/gcc/arm-none-eabi/7.1.0/../../../../arm-none-eabi/lib/armv7-m/libg_nano.a(lib_a-nano-vfprintf_i.o)
 .rodata._ctype_
                0x0000000008001d89      0x101 /usr/lib/gcc/arm-none-eabi/7.1.0/../../../../arm-none-eabi/lib/armv7-m/libg_nano.a(lib_a-ctype_.o)
                0x0000000008001d89                _ctype_
 *(vtable)
 *(.eh_frame*)
 *(.glue_7)
 .glue_7        0x0000000008001e8a        0x0 linker stubs
 *(.glue_7t)
 .glue_7t       0x0000000008001e8a        0x0 linker stubs

.vfp11_veneer   0x0000000008001e8c        0x0
 .vfp11_veneer  0x0000000008001e8c        0x0 linker stubs

.v4_bx          0x0000000008001e8c        0x0
 .v4_bx         0x0000000008001e8c        0x0 linker stubs

.iplt           0x0000000008001e8c        0x0
 .iplt          0x0000000008001e8c        0x0 system/F10X_MD/exception_handlers.o

.rel.dyn        0x0000000008001e8c        0x0
 .rel.iplt      0x0000000008001e8c        0x0 system/F10X_MD/exception_handlers.o

.ARM.extab
 *(.ARM.extab* .gnu.linkonce.armextab.*)
                0x0000000008001e8c                . = ALIGN (0x4)
                0x0000000008001e8c                __exidx_start = .

.ARM.exidx
 *(.ARM.exidx* .gnu.linkonce.armexidx.*)
                0x0000000008001e8c                __exidx_end = .
                0x0000000008001e8c                . = ALIGN (0x4)
                0x0000000008001e8c                _etext = .
                0x0000000008001e8c                __etext = .

.data_CCMRAM    0x0000000000000000        0x0 load address 0x0000000008001e8c
 FILL mask 0xff
 *(.data.CCMRAM .data.CCMRAM.*)
                0x0000000000000000                . = ALIGN (0x4)
                0x0000000008001e8c                _sidata = LOADADDR (.data)

.data           0x0000000020000000      0x1f0 load address 0x0000000008001e8c
 FILL mask 0xff
                0x0000000020000000                _sdata = .
                0x0000000020000000                __data_start__ = .
 *(.data_begin .data_begin.*)
 *(.data .data.*)
 .data.AHBPrescTable
                0x0000000020000000       0x10 system/F10X_MD/system.o
                0x0000000020000000                AHBPrescTable
 .data.SystemCoreClock
                0x0000000020000010        0x4 system/F10X_MD/system.o
                0x0000000020000010                SystemCoreClock
 .data.argv.4228
                0x0000000020000014        0x8 system/newlib/_syscalls.o
 .data.feedback_buf_index
                0x000000002000001c        0x2 src/main.o
 *fill*         0x000000002000001e        0x2 ff
 .data._impure_ptr
                0x0000000020000020        0x4 /usr/lib/gcc/arm-none-eabi/7.1.0/../../../../arm-none-eabi/lib/armv7-m/libg_nano.a(lib_a-impure.o)
                0x0000000020000020                _impure_ptr
 .data.impure_data
                0x0000000020000024       0x60 /usr/lib/gcc/arm-none-eabi/7.1.0/../../../../arm-none-eabi/lib/armv7-m/libg_nano.a(lib_a-impure.o)
 .data.__global_locale
                0x0000000020000084      0x16c /usr/lib/gcc/arm-none-eabi/7.1.0/../../../../arm-none-eabi/lib/armv7-m/libg_nano.a(lib_a-locale.o)
                0x0000000020000084                __global_locale
 *(.data_end .data_end.*)
                0x00000000200001f0                . = ALIGN (0x4)
                0x00000000200001f0                _edata = .
                0x00000000200001f0                __data_end__ = .

.igot.plt       0x00000000200001f0        0x0 load address 0x000000000800207c
 .igot.plt      0x00000000200001f0        0x0 system/F10X_MD/exception_handlers.o

.bss_CCMRAM     0x0000000000000000        0x0
 *(.bss.CCMRAM .bss.CCMRAM.*)

.bss            0x00000000200001f0     0x12d0
                0x00000000200001f0                __bss_start__ = .
                0x00000000200001f0                _sbss = .
 *(.bss_begin .bss_begin.*)
 *(.bss .bss.*)
 .bss.current_heap_end.3913
                0x00000000200001f0        0x4 system/newlib/_sbrk.o
 .bss.name.4227
                0x00000000200001f4        0x1 system/newlib/_syscalls.o
 *fill*         0x00000000200001f5        0x3 
 .bss.cmd.6327  0x00000000200001f8       0x40 src/main.o
 .bss.feedback_buf
                0x0000000020000238      0xfa0 src/main.o
 .bss.feedback_src
                0x00000000200011d8        0x4 src/main.o
 *fill*         0x00000000200011dc        0x4 
 .bss.pid       0x00000000200011e0       0xb0 src/main.o
 .bss.resampler_250Hz
                0x0000000020001290        0x1 src/main.o
 .bss.rx_produce.6328
                0x0000000020001291        0x1 src/main.o
 *fill*         0x0000000020001292        0x2 
 .bss.step_0_cnt
                0x0000000020001294        0x4 src/main.o
 .bss.step_1_cnt
                0x0000000020001298        0x4 src/main.o
 .bss.rx_buf    0x000000002000129c      0x100 src/uart.o
 .bss.rx_consume
                0x000000002000139c        0x4 src/uart.o
 .bss.rx_produce
                0x00000000200013a0        0x4 src/uart.o
 .bss.tx_buf    0x00000000200013a4      0x100 src/uart.o
 .bss.tx_consume
                0x00000000200014a4        0x4 src/uart.o
 .bss.tx_cts    0x00000000200014a8        0x4 src/uart.o
 .bss.tx_produce
                0x00000000200014ac        0x4 src/uart.o
 .bss.pid_reset_flag
                0x00000000200014b0        0x4 src/pid.o
 .bss.__malloc_free_list
                0x00000000200014b4        0x4 /usr/lib/gcc/arm-none-eabi/7.1.0/../../../../arm-none-eabi/lib/armv7-m/libg_nano.a(lib_a-nano-mallocr.o)
                0x00000000200014b4                __malloc_free_list
 .bss.__malloc_sbrk_start
                0x00000000200014b8        0x4 /usr/lib/gcc/arm-none-eabi/7.1.0/../../../../arm-none-eabi/lib/armv7-m/libg_nano.a(lib_a-nano-mallocr.o)
                0x00000000200014b8                __malloc_sbrk_start
 *(COMMON)
 COMMON         0x00000000200014bc        0x4 system/newlib/_syscalls.o
                0x00000000200014bc                errno
 *(.bss_end .bss_end.*)
                0x00000000200014c0                . = ALIGN (0x4)
                0x00000000200014c0                __bss_end__ = .
                0x00000000200014c0                _ebss = .

.noinit_CCMRAM
 *(.noinit.CCMRAM .noinit.CCMRAM.*)

.noinit         0x00000000200014c0        0x0
                0x00000000200014c0                _noinit = .
 *(.noinit .noinit.*)
                0x00000000200014c0                . = ALIGN (0x4)
                0x00000000200014c0                _end_noinit = .
                [!provide]                        PROVIDE (end, _end_noinit)
                [!provide]                        PROVIDE (_end, _end_noinit)
                [!provide]                        PROVIDE (__end, _end_noinit)
                [!provide]                        PROVIDE (__end__, _end_noinit)

._check_stack   0x00000000200014c0      0x100
                0x00000000200015c0                . = (. + _Minimum_Stack_Size)
 *fill*         0x00000000200014c0      0x100 

.b1text
 *(.b1text)
 *(.b1rodata)
 *(.b1rodata.*)

.eb0text
 *(.eb0text)
 *(.eb0rodata)
 *(.eb0rodata.*)

.eb1text
 *(.eb1text)
 *(.eb1rodata)
 *(.eb1rodata.*)

.eb2text
 *(.eb2text)
 *(.eb2rodata)
 *(.eb2rodata.*)

.eb3text
 *(.eb3text)
 *(.eb3rodata)
 *(.eb3rodata.*)

.stab
 *(.stab)

.stabstr
 *(.stabstr)

.stab.excl
 *(.stab.excl)

.stab.exclstr
 *(.stab.exclstr)

.stab.index
 *(.stab.index)

.stab.indexstr
 *(.stab.indexstr)

.comment        0x0000000000000000       0x1d
 *(.comment)
 .comment       0x0000000000000000       0x1d system/F10X_MD/exception_handlers.o
                                         0x1e (size before relaxing)
 .comment       0x000000000000001d       0x1e system/F10X_MD/system.o
 .comment       0x000000000000001d       0x1e system/F10X_MD/vectors.o
 .comment       0x000000000000001d       0x1e system/newlib/_exit.o
 .comment       0x000000000000001d       0x1e system/newlib/_initialize_hardware.o
 .comment       0x000000000000001d       0x1e system/newlib/_reset_hardware.o
 .comment       0x000000000000001d       0x1e system/newlib/_sbrk.o
 .comment       0x000000000000001d       0x1e system/newlib/_startup.o
 .comment       0x000000000000001d       0x1e system/newlib/_syscalls.o
 .comment       0x000000000000001d       0x1e src/main.o
 .comment       0x000000000000001d       0x1e src/uart.o
 .comment       0x000000000000001d       0x1e src/eeprom.o
 .comment       0x000000000000001d       0x1e src/peripheral.o
 .comment       0x000000000000001d       0x1e src/pid.o

.ARM.attributes
                0x0000000000000000       0x31
 .ARM.attributes
                0x0000000000000000       0x33 system/F10X_MD/exception_handlers.o
 .ARM.attributes
                0x0000000000000033       0x33 system/F10X_MD/system.o
 .ARM.attributes
                0x0000000000000066       0x33 system/F10X_MD/vectors.o
 .ARM.attributes
                0x0000000000000099       0x33 system/newlib/_exit.o
 .ARM.attributes
                0x00000000000000cc       0x33 system/newlib/_initialize_hardware.o
 .ARM.attributes
                0x00000000000000ff       0x33 system/newlib/_reset_hardware.o
 .ARM.attributes
                0x0000000000000132       0x33 system/newlib/_sbrk.o
 .ARM.attributes
                0x0000000000000165       0x33 system/newlib/_startup.o
 .ARM.attributes
                0x0000000000000198       0x33 system/newlib/_syscalls.o
 .ARM.attributes
                0x00000000000001cb       0x33 src/main.o
 .ARM.attributes
                0x00000000000001fe       0x33 src/uart.o
 .ARM.attributes
                0x0000000000000231       0x33 src/eeprom.o
 .ARM.attributes
                0x0000000000000264       0x33 src/peripheral.o
 .ARM.attributes
                0x0000000000000297       0x33 src/pid.o
 .ARM.attributes
                0x00000000000002ca       0x2d /usr/lib/gcc/arm-none-eabi/7.1.0/../../../../arm-none-eabi/lib/armv7-m/libg_nano.a(lib_a-atoi.o)
 .ARM.attributes
                0x00000000000002f7       0x2d /usr/lib/gcc/arm-none-eabi/7.1.0/../../../../arm-none-eabi/lib/armv7-m/libg_nano.a(lib_a-bzero.o)
 .ARM.attributes
                0x0000000000000324       0x2d /usr/lib/gcc/arm-none-eabi/7.1.0/../../../../arm-none-eabi/lib/armv7-m/libg_nano.a(lib_a-errno.o)
 .ARM.attributes
                0x0000000000000351       0x2d /usr/lib/gcc/arm-none-eabi/7.1.0/../../../../arm-none-eabi/lib/armv7-m/libg_nano.a(lib_a-impure.o)
 .ARM.attributes
                0x000000000000037e       0x2d /usr/lib/gcc/arm-none-eabi/7.1.0/../../../../arm-none-eabi/lib/armv7-m/libg_nano.a(lib_a-memcpy-stub.o)
 .ARM.attributes
                0x00000000000003ab       0x2d /usr/lib/gcc/arm-none-eabi/7.1.0/../../../../arm-none-eabi/lib/armv7-m/libg_nano.a(lib_a-snprintf.o)
 .ARM.attributes
                0x00000000000003d8       0x2d /usr/lib/gcc/arm-none-eabi/7.1.0/../../../../arm-none-eabi/lib/armv7-m/libg_nano.a(lib_a-sprintf.o)
 .ARM.attributes
                0x0000000000000405       0x2d /usr/lib/gcc/arm-none-eabi/7.1.0/../../../../arm-none-eabi/lib/armv7-m/libg_nano.a(lib_a-strtol.o)
 .ARM.attributes
                0x0000000000000432       0x2d /usr/lib/gcc/arm-none-eabi/7.1.0/../../../../arm-none-eabi/lib/armv7-m/libg_nano.a(lib_a-locale.o)
 .ARM.attributes
                0x000000000000045f       0x2d /usr/lib/gcc/arm-none-eabi/7.1.0/../../../../arm-none-eabi/lib/armv7-m/libg_nano.a(lib_a-mbtowc_r.o)
 .ARM.attributes
                0x000000000000048c       0x2d /usr/lib/gcc/arm-none-eabi/7.1.0/../../../../arm-none-eabi/lib/armv7-m/libg_nano.a(lib_a-nano-svfprintf.o)
 .ARM.attributes
                0x00000000000004b9       0x2d /usr/lib/gcc/arm-none-eabi/7.1.0/../../../../arm-none-eabi/lib/armv7-m/libg_nano.a(lib_a-nano-vfprintf_i.o)
 .ARM.attributes
                0x00000000000004e6       0x2d /usr/lib/gcc/arm-none-eabi/7.1.0/../../../../arm-none-eabi/lib/armv7-m/libg_nano.a(lib_a-wctomb_r.o)
 .ARM.attributes
                0x0000000000000513       0x2d /usr/lib/gcc/arm-none-eabi/7.1.0/../../../../arm-none-eabi/lib/armv7-m/libg_nano.a(lib_a-ctype_.o)
 .ARM.attributes
                0x0000000000000540       0x2d /usr/lib/gcc/arm-none-eabi/7.1.0/../../../../arm-none-eabi/lib/armv7-m/libg_nano.a(lib_a-memchr-stub.o)
 .ARM.attributes
                0x000000000000056d       0x2d /usr/lib/gcc/arm-none-eabi/7.1.0/../../../../arm-none-eabi/lib/armv7-m/libg_nano.a(lib_a-memmove.o)
 .ARM.attributes
                0x000000000000059a       0x2d /usr/lib/gcc/arm-none-eabi/7.1.0/../../../../arm-none-eabi/lib/armv7-m/libg_nano.a(lib_a-nano-freer.o)
 .ARM.attributes
                0x00000000000005c7       0x2d /usr/lib/gcc/arm-none-eabi/7.1.0/../../../../arm-none-eabi/lib/armv7-m/libg_nano.a(lib_a-nano-mallocr.o)
 .ARM.attributes
                0x00000000000005f4       0x2d /usr/lib/gcc/arm-none-eabi/7.1.0/../../../../arm-none-eabi/lib/armv7-m/libg_nano.a(lib_a-nano-reallocr.o)
 .ARM.attributes
                0x0000000000000621       0x2d /usr/lib/gcc/arm-none-eabi/7.1.0/../../../../arm-none-eabi/lib/armv7-m/libg_nano.a(lib_a-sbrkr.o)
 .ARM.attributes
                0x000000000000064e       0x2d /usr/lib/gcc/arm-none-eabi/7.1.0/../../../../arm-none-eabi/lib/armv7-m/libg_nano.a(lib_a-mlock.o)
 .ARM.attributes
                0x000000000000067b       0x2d /usr/lib/gcc/arm-none-eabi/7.1.0/../../../../arm-none-eabi/lib/armv7-m/libg_nano.a(lib_a-nano-msizer.o)

.debug
 *(.debug)

.line
 *(.line)

.debug_srcinfo
 *(.debug_srcinfo)

.debug_sfnames
 *(.debug_sfnames)

.debug_aranges  0x0000000000000000      0x350
 *(.debug_aranges)
 .debug_aranges
                0x0000000000000000       0x80 system/F10X_MD/exception_handlers.o
 .debug_aranges
                0x0000000000000080       0x28 system/F10X_MD/system.o
 .debug_aranges
                0x00000000000000a8       0x20 system/F10X_MD/vectors.o
 .debug_aranges
                0x00000000000000c8       0x28 system/newlib/_exit.o
 .debug_aranges
                0x00000000000000f0       0x28 system/newlib/_initialize_hardware.o
 .debug_aranges
                0x0000000000000118       0x20 system/newlib/_reset_hardware.o
 .debug_aranges
                0x0000000000000138       0x20 system/newlib/_sbrk.o
 .debug_aranges
                0x0000000000000158       0x30 system/newlib/_startup.o
 .debug_aranges
                0x0000000000000188       0xa0 system/newlib/_syscalls.o
 .debug_aranges
                0x0000000000000228       0x40 src/main.o
 .debug_aranges
                0x0000000000000268       0x48 src/uart.o
 .debug_aranges
                0x00000000000002b0       0x28 src/eeprom.o
 .debug_aranges
                0x00000000000002d8       0x20 src/peripheral.o
 .debug_aranges
                0x00000000000002f8       0x58 src/pid.o

.debug_pubnames
 *(.debug_pubnames)

.debug_info     0x0000000000000000     0x682b
 *(.debug_info .gnu.linkonce.wi.*)
 .debug_info    0x0000000000000000      0x222 system/F10X_MD/exception_handlers.o
 .debug_info    0x0000000000000222      0x494 system/F10X_MD/system.o
 .debug_info    0x00000000000006b6       0xc6 system/F10X_MD/vectors.o
 .debug_info    0x000000000000077c       0x8b system/newlib/_exit.o
 .debug_info    0x0000000000000807      0x2b1 system/newlib/_initialize_hardware.o
 .debug_info    0x0000000000000ab8      0x2aa system/newlib/_reset_hardware.o
 .debug_info    0x0000000000000d62      0x933 system/newlib/_sbrk.o
 .debug_info    0x0000000000001695      0x2b7 system/newlib/_startup.o
 .debug_info    0x000000000000194c     0x112a system/newlib/_syscalls.o
 .debug_info    0x0000000000002a76     0x13d4 src/main.o
 .debug_info    0x0000000000003e4a      0x6fc src/uart.o
 .debug_info    0x0000000000004546      0xbf7 src/eeprom.o
 .debug_info    0x000000000000513d      0x9dc src/peripheral.o
 .debug_info    0x0000000000005b19      0xd12 src/pid.o

.debug_abbrev   0x0000000000000000     0x1867
 *(.debug_abbrev)
 .debug_abbrev  0x0000000000000000       0xac system/F10X_MD/exception_handlers.o
 .debug_abbrev  0x00000000000000ac      0x19d system/F10X_MD/system.o
 .debug_abbrev  0x0000000000000249       0x9a system/F10X_MD/vectors.o
 .debug_abbrev  0x00000000000002e3       0x98 system/newlib/_exit.o
 .debug_abbrev  0x000000000000037b       0xf5 system/newlib/_initialize_hardware.o
 .debug_abbrev  0x0000000000000470      0x10d system/newlib/_reset_hardware.o
 .debug_abbrev  0x000000000000057d      0x1f9 system/newlib/_sbrk.o
 .debug_abbrev  0x0000000000000776      0x154 system/newlib/_startup.o
 .debug_abbrev  0x00000000000008ca      0x2d0 system/newlib/_syscalls.o
 .debug_abbrev  0x0000000000000b9a      0x33c src/main.o
 .debug_abbrev  0x0000000000000ed6      0x258 src/uart.o
 .debug_abbrev  0x000000000000112e      0x2ac src/eeprom.o
 .debug_abbrev  0x00000000000013da      0x19c src/peripheral.o
 .debug_abbrev  0x0000000000001576      0x2f1 src/pid.o

.debug_line     0x0000000000000000     0x11fa
 *(.debug_line)
 .debug_line    0x0000000000000000       0xc1 system/F10X_MD/exception_handlers.o
 .debug_line    0x00000000000000c1      0x12d system/F10X_MD/system.o
 .debug_line    0x00000000000001ee       0x49 system/F10X_MD/vectors.o
 .debug_line    0x0000000000000237       0x56 system/newlib/_exit.o
 .debug_line    0x000000000000028d       0xd3 system/newlib/_initialize_hardware.o
 .debug_line    0x0000000000000360       0xde system/newlib/_reset_hardware.o
 .debug_line    0x000000000000043e       0xe4 system/newlib/_sbrk.o
 .debug_line    0x0000000000000522       0x86 system/newlib/_startup.o
 .debug_line    0x00000000000005a8      0x293 system/newlib/_syscalls.o
 .debug_line    0x000000000000083b      0x291 src/main.o
 .debug_line    0x0000000000000acc      0x196 src/uart.o
 .debug_line    0x0000000000000c62      0x191 src/eeprom.o
 .debug_line    0x0000000000000df3      0x167 src/peripheral.o
 .debug_line    0x0000000000000f5a      0x2a0 src/pid.o

.debug_frame    0x0000000000000000      0xca4
 *(.debug_frame)
 .debug_frame   0x0000000000000000       0xe0 system/F10X_MD/exception_handlers.o
 .debug_frame   0x00000000000000e0       0x44 system/F10X_MD/system.o
 .debug_frame   0x0000000000000124       0x20 system/F10X_MD/vectors.o
 .debug_frame   0x0000000000000144       0x40 system/newlib/_exit.o
 .debug_frame   0x0000000000000184       0x38 system/newlib/_initialize_hardware.o
 .debug_frame   0x00000000000001bc       0x20 system/newlib/_reset_hardware.o
 .debug_frame   0x00000000000001dc       0x28 system/newlib/_sbrk.o
 .debug_frame   0x0000000000000204       0x48 system/newlib/_startup.o
 .debug_frame   0x000000000000024c      0x230 system/newlib/_syscalls.o
 .debug_frame   0x000000000000047c       0xd0 src/main.o
 .debug_frame   0x000000000000054c       0xb0 src/uart.o
 .debug_frame   0x00000000000005fc       0x54 src/eeprom.o
 .debug_frame   0x0000000000000650       0x34 src/peripheral.o
 .debug_frame   0x0000000000000684       0xcc src/pid.o
 .debug_frame   0x0000000000000750       0x30 /usr/lib/gcc/arm-none-eabi/7.1.0/../../../../arm-none-eabi/lib/armv7-m/libg_nano.a(lib_a-atoi.o)
 .debug_frame   0x0000000000000780       0x20 /usr/lib/gcc/arm-none-eabi/7.1.0/../../../../arm-none-eabi/lib/armv7-m/libg_nano.a(lib_a-bzero.o)
 .debug_frame   0x00000000000007a0       0x20 /usr/lib/gcc/arm-none-eabi/7.1.0/../../../../arm-none-eabi/lib/armv7-m/libg_nano.a(lib_a-errno.o)
 .debug_frame   0x00000000000007c0       0x28 /usr/lib/gcc/arm-none-eabi/7.1.0/../../../../arm-none-eabi/lib/armv7-m/libg_nano.a(lib_a-memcpy-stub.o)
 .debug_frame   0x00000000000007e8       0x7c /usr/lib/gcc/arm-none-eabi/7.1.0/../../../../arm-none-eabi/lib/armv7-m/libg_nano.a(lib_a-snprintf.o)
 .debug_frame   0x0000000000000864       0x70 /usr/lib/gcc/arm-none-eabi/7.1.0/../../../../arm-none-eabi/lib/armv7-m/libg_nano.a(lib_a-sprintf.o)
 .debug_frame   0x00000000000008d4       0x88 /usr/lib/gcc/arm-none-eabi/7.1.0/../../../../arm-none-eabi/lib/armv7-m/libg_nano.a(lib_a-strtol.o)
 .debug_frame   0x000000000000095c       0x68 /usr/lib/gcc/arm-none-eabi/7.1.0/../../../../arm-none-eabi/lib/armv7-m/libg_nano.a(lib_a-locale.o)
 .debug_frame   0x00000000000009c4       0x48 /usr/lib/gcc/arm-none-eabi/7.1.0/../../../../arm-none-eabi/lib/armv7-m/libg_nano.a(lib_a-mbtowc_r.o)
 .debug_frame   0x0000000000000a0c       0x90 /usr/lib/gcc/arm-none-eabi/7.1.0/../../../../arm-none-eabi/lib/armv7-m/libg_nano.a(lib_a-nano-svfprintf.o)
 .debug_frame   0x0000000000000a9c       0x60 /usr/lib/gcc/arm-none-eabi/7.1.0/../../../../arm-none-eabi/lib/armv7-m/libg_nano.a(lib_a-nano-vfprintf_i.o)
 .debug_frame   0x0000000000000afc       0x3c /usr/lib/gcc/arm-none-eabi/7.1.0/../../../../arm-none-eabi/lib/armv7-m/libg_nano.a(lib_a-wctomb_r.o)
 .debug_frame   0x0000000000000b38       0x28 /usr/lib/gcc/arm-none-eabi/7.1.0/../../../../arm-none-eabi/lib/armv7-m/libg_nano.a(lib_a-memchr-stub.o)
 .debug_frame   0x0000000000000b60       0x28 /usr/lib/gcc/arm-none-eabi/7.1.0/../../../../arm-none-eabi/lib/armv7-m/libg_nano.a(lib_a-memmove.o)
 .debug_frame   0x0000000000000b88       0x38 /usr/lib/gcc/arm-none-eabi/7.1.0/../../../../arm-none-eabi/lib/armv7-m/libg_nano.a(lib_a-nano-freer.o)
 .debug_frame   0x0000000000000bc0       0x2c /usr/lib/gcc/arm-none-eabi/7.1.0/../../../../arm-none-eabi/lib/armv7-m/libg_nano.a(lib_a-nano-mallocr.o)
 .debug_frame   0x0000000000000bec       0x3c /usr/lib/gcc/arm-none-eabi/7.1.0/../../../../arm-none-eabi/lib/armv7-m/libg_nano.a(lib_a-nano-reallocr.o)
 .debug_frame   0x0000000000000c28       0x2c /usr/lib/gcc/arm-none-eabi/7.1.0/../../../../arm-none-eabi/lib/armv7-m/libg_nano.a(lib_a-sbrkr.o)
 .debug_frame   0x0000000000000c54       0x30 /usr/lib/gcc/arm-none-eabi/7.1.0/../../../../arm-none-eabi/lib/armv7-m/libg_nano.a(lib_a-mlock.o)
 .debug_frame   0x0000000000000c84       0x20 /usr/lib/gcc/arm-none-eabi/7.1.0/../../../../arm-none-eabi/lib/armv7-m/libg_nano.a(lib_a-nano-msizer.o)

.debug_str      0x0000000000000000     0x14e2
 *(.debug_str)
 .debug_str     0x0000000000000000      0x244 system/F10X_MD/exception_handlers.o
                                        0x281 (size before relaxing)
 .debug_str     0x0000000000000244      0x183 system/F10X_MD/system.o
                                        0x2f9 (size before relaxing)
 .debug_str     0x00000000000003c7       0x48 system/F10X_MD/vectors.o
                                        0x1a8 (size before relaxing)
 .debug_str     0x000000000000040f       0x38 system/newlib/_exit.o
                                        0x114 (size before relaxing)
 .debug_str     0x0000000000000447       0x67 system/newlib/_initialize_hardware.o
                                        0x27c (size before relaxing)
 .debug_str     0x00000000000004ae       0x37 system/newlib/_reset_hardware.o
                                        0x23c (size before relaxing)
 .debug_str     0x00000000000004e5      0x430 system/newlib/_sbrk.o
                                        0x5d7 (size before relaxing)
 .debug_str     0x0000000000000915      0x112 system/newlib/_startup.o
                                        0x24e (size before relaxing)
 .debug_str     0x0000000000000a27      0x278 system/newlib/_syscalls.o
                                        0x884 (size before relaxing)
 .debug_str     0x0000000000000c9f      0x38d src/main.o
                                        0x978 (size before relaxing)
 .debug_str     0x000000000000102c      0x397 src/uart.o
                                        0x619 (size before relaxing)
 .debug_str     0x00000000000013c3       0x4b src/eeprom.o
                                        0x680 (size before relaxing)
 .debug_str     0x000000000000140e       0x81 src/peripheral.o
                                        0x71e (size before relaxing)
 .debug_str     0x000000000000148f       0x53 src/pid.o
                                        0x735 (size before relaxing)

.debug_loc      0x0000000000000000      0x9ac
 *(.debug_loc)
 .debug_loc     0x0000000000000000       0xbc system/F10X_MD/system.o
 .debug_loc     0x00000000000000bc       0x21 system/newlib/_exit.o
 .debug_loc     0x00000000000000dd       0x85 system/newlib/_sbrk.o
 .debug_loc     0x0000000000000162       0xed system/newlib/_startup.o
 .debug_loc     0x000000000000024f      0x3ff system/newlib/_syscalls.o
 .debug_loc     0x000000000000064e       0x4c src/main.o
 .debug_loc     0x000000000000069a       0x84 src/uart.o
 .debug_loc     0x000000000000071e       0x81 src/eeprom.o
 .debug_loc     0x000000000000079f       0x56 src/peripheral.o
 .debug_loc     0x00000000000007f5      0x1b7 src/pid.o

.debug_macinfo
 *(.debug_macinfo)

.debug_weaknames
 *(.debug_weaknames)

.debug_funcnames
 *(.debug_funcnames)

.debug_typenames
 *(.debug_typenames)

.debug_varnames
 *(.debug_varnames)
OUTPUT(build/pid.elf elf32-littlearm)

.debug_ranges   0x0000000000000000      0x3c8
 .debug_ranges  0x0000000000000000       0x70 system/F10X_MD/exception_handlers.o
 .debug_ranges  0x0000000000000070       0x38 system/F10X_MD/system.o
 .debug_ranges  0x00000000000000a8       0x10 system/F10X_MD/vectors.o
 .debug_ranges  0x00000000000000b8       0x18 system/newlib/_exit.o
 .debug_ranges  0x00000000000000d0       0x18 system/newlib/_initialize_hardware.o
 .debug_ranges  0x00000000000000e8       0x10 system/newlib/_reset_hardware.o
 .debug_ranges  0x00000000000000f8       0x10 system/newlib/_sbrk.o
 .debug_ranges  0x0000000000000108       0x20 system/newlib/_startup.o
 .debug_ranges  0x0000000000000128       0x90 system/newlib/_syscalls.o
 .debug_ranges  0x00000000000001b8       0x90 src/main.o
 .debug_ranges  0x0000000000000248       0x88 src/uart.o
 .debug_ranges  0x00000000000002d0       0x18 src/eeprom.o
 .debug_ranges  0x00000000000002e8       0x70 src/peripheral.o
 .debug_ranges  0x0000000000000358       0x70 src/pid.o
